target datalayout = "e-m:e-p270:32:32-p271:32:32-p272:64:64-i64:64-i128:128-f80:128-n8:16:32:64-S128"
target triple = "x86_64-pc-linux-gnu"

%struct.Kit_Sop_t_ = type { i32, i32, ptr }
%struct.Vec_Int_t_ = type { i32, i32, ptr }

; Function Attrs: nounwind uwtable
define internal i32 @Kit_TruthWordNum(i32 noundef %0) #0 {
  %2 = alloca i32, align 4
  store i32 %0, ptr %2, align 4
  %3 = load i32, ptr %2, align 4
  %4 = icmp sle i32 %3, 5
  br i1 %4, label %5, label %6

5:                                                ; preds = %1
  br label %10

6:                                                ; preds = %1
  %7 = load i32, ptr %2, align 4
  %8 = sub nsw i32 %7, 5
  %9 = shl i32 1, %8
  br label %10

10:                                               ; preds = %6, %5
  %11 = phi i32 [ 1, %5 ], [ %9, %6 ]
  ret i32 %11
}

; Function Attrs: nounwind uwtable
define internal void @Kit_TruthNot(ptr noundef %0, ptr noundef %1, i32 noundef %2) #0 {
  %4 = alloca ptr, align 8
  %5 = alloca ptr, align 8
  %6 = alloca i32, align 4
  %7 = alloca i32, align 4
  store ptr %0, ptr %4, align 8
  store ptr %1, ptr %5, align 8
  store i32 %2, ptr %6, align 4
  %8 = load i32, ptr %6, align 4
  %9 = call i32 @Kit_TruthWordNum(i32 noundef %8)
  %10 = sub nsw i32 %9, 1
  store i32 %10, ptr %7, align 4
  br label %11

11:                                               ; preds = %25, %3
  %12 = load i32, ptr %7, align 4
  %13 = icmp sge i32 %12, 0
  br i1 %13, label %14, label %28

14:                                               ; preds = %11
  %15 = load ptr, ptr %5, align 8
  %16 = load i32, ptr %7, align 4
  %17 = sext i32 %16 to i64
  %18 = getelementptr inbounds i32, ptr %15, i64 %17
  %19 = load i32, ptr %18, align 4
  %20 = xor i32 %19, -1
  %21 = load ptr, ptr %4, align 8
  %22 = load i32, ptr %7, align 4
  %23 = sext i32 %22 to i64
  %24 = getelementptr inbounds i32, ptr %21, i64 %23
  store i32 %20, ptr %24, align 4
  br label %25

25:                                               ; preds = %14
  %26 = load i32, ptr %7, align 4
  %27 = add nsw i32 %26, -1
  store i32 %27, ptr %7, align 4
  br label %11, !llvm.loop !4

28:                                               ; preds = %11
  ret void
}

; Function Attrs: nounwind uwtable
define internal void @Vec_IntShrink(ptr noundef %0, i32 noundef %1) #0 {
  %3 = alloca ptr, align 8
  %4 = alloca i32, align 4
  store ptr %0, ptr %3, align 8
  store i32 %1, ptr %4, align 4
  %5 = load i32, ptr %4, align 4
  %6 = load ptr, ptr %3, align 8
  %7 = getelementptr inbounds %struct.Vec_Int_t_, ptr %6, i32 0, i32 1
  store i32 %5, ptr %7, align 4
  ret void
}

; Function Attrs: nounwind uwtable
define internal void @Vec_IntGrow(ptr noundef %0, i32 noundef %1) #0 {
  %3 = alloca ptr, align 8
  %4 = alloca i32, align 4
  store ptr %0, ptr %3, align 8
  store i32 %1, ptr %4, align 4
  %5 = load ptr, ptr %3, align 8
  %6 = getelementptr inbounds %struct.Vec_Int_t_, ptr %5, i32 0, i32 0
  %7 = load i32, ptr %6, align 8
  %8 = load i32, ptr %4, align 4
  %9 = icmp sge i32 %7, %8
  br i1 %9, label %10, label %11

10:                                               ; preds = %2
  br label %36

11:                                               ; preds = %2
  %12 = load ptr, ptr %3, align 8
  %13 = getelementptr inbounds %struct.Vec_Int_t_, ptr %12, i32 0, i32 2
  %14 = load ptr, ptr %13, align 8
  %15 = icmp ne ptr %14, null
  br i1 %15, label %16, label %24

16:                                               ; preds = %11
  %17 = load ptr, ptr %3, align 8
  %18 = getelementptr inbounds %struct.Vec_Int_t_, ptr %17, i32 0, i32 2
  %19 = load ptr, ptr %18, align 8
  %20 = load i32, ptr %4, align 4
  %21 = sext i32 %20 to i64
  %22 = mul i64 4, %21
  %23 = call ptr @realloc(ptr noundef %19, i64 noundef %22) #5
  br label %29

24:                                               ; preds = %11
  %25 = load i32, ptr %4, align 4
  %26 = sext i32 %25 to i64
  %27 = mul i64 4, %26
  %28 = call noalias ptr @malloc(i64 noundef %27) #6
  br label %29

29:                                               ; preds = %24, %16
  %30 = phi ptr [ %23, %16 ], [ %28, %24 ]
  %31 = load ptr, ptr %3, align 8
  %32 = getelementptr inbounds %struct.Vec_Int_t_, ptr %31, i32 0, i32 2
  store ptr %30, ptr %32, align 8
  %33 = load i32, ptr %4, align 4
  %34 = load ptr, ptr %3, align 8
  %35 = getelementptr inbounds %struct.Vec_Int_t_, ptr %34, i32 0, i32 0
  store i32 %33, ptr %35, align 8
  br label %36

36:                                               ; preds = %29, %10
  ret void
}

; Function Attrs: nounwind uwtable
define internal void @Vec_IntClear(ptr noundef %0) #0 {
  %2 = alloca ptr, align 8
  store ptr %0, ptr %2, align 8
  %3 = load ptr, ptr %2, align 8
  %4 = getelementptr inbounds %struct.Vec_Int_t_, ptr %3, i32 0, i32 1
  store i32 0, ptr %4, align 4
  ret void
}

; Function Attrs: nounwind uwtable
define i32 @Kit_TruthIsop(ptr noundef %0, i32 noundef %1, ptr noundef %2, i32 noundef %3) #0 {
  %5 = alloca i32, align 4
  %6 = alloca ptr, align 8
  %7 = alloca i32, align 4
  %8 = alloca ptr, align 8
  %9 = alloca i32, align 4
  %10 = alloca %struct.Kit_Sop_t_, align 8
  %11 = alloca ptr, align 8
  %12 = alloca %struct.Kit_Sop_t_, align 8
  %13 = alloca ptr, align 8
  %14 = alloca ptr, align 8
  %15 = alloca i32, align 4
  store ptr %0, ptr %6, align 8
  store i32 %1, ptr %7, align 4
  store ptr %2, ptr %8, align 8
  store i32 %3, ptr %9, align 4
  store ptr %10, ptr %11, align 8
  store ptr %12, ptr %13, align 8
  store i32 0, ptr %15, align 4
  %16 = load ptr, ptr %8, align 8
  call void @Vec_IntClear(ptr noundef %16)
  %17 = load ptr, ptr %8, align 8
  call void @Vec_IntGrow(ptr noundef %17, i32 noundef 1048576)
  %18 = load ptr, ptr %6, align 8
  %19 = load ptr, ptr %6, align 8
  %20 = load i32, ptr %7, align 4
  %21 = load ptr, ptr %11, align 8
  %22 = load ptr, ptr %8, align 8
  %23 = call ptr @Kit_TruthIsop_rec(ptr noundef %18, ptr noundef %19, i32 noundef %20, ptr noundef %21, ptr noundef %22)
  store ptr %23, ptr %14, align 8
  %24 = load ptr, ptr %11, align 8
  %25 = getelementptr inbounds %struct.Kit_Sop_t_, ptr %24, i32 0, i32 1
  %26 = load i32, ptr %25, align 4
  %27 = icmp eq i32 %26, -1
  br i1 %27, label %28, label %31

28:                                               ; preds = %4
  %29 = load ptr, ptr %8, align 8
  %30 = getelementptr inbounds %struct.Vec_Int_t_, ptr %29, i32 0, i32 1
  store i32 -1, ptr %30, align 4
  store i32 -1, ptr %5, align 4
  br label %122

31:                                               ; preds = %4
  %32 = load ptr, ptr %11, align 8
  %33 = getelementptr inbounds %struct.Kit_Sop_t_, ptr %32, i32 0, i32 1
  %34 = load i32, ptr %33, align 4
  %35 = icmp eq i32 %34, 0
  br i1 %35, label %48, label %36

36:                                               ; preds = %31
  %37 = load ptr, ptr %11, align 8
  %38 = getelementptr inbounds %struct.Kit_Sop_t_, ptr %37, i32 0, i32 1
  %39 = load i32, ptr %38, align 4
  %40 = icmp eq i32 %39, 1
  br i1 %40, label %41, label %57

41:                                               ; preds = %36
  %42 = load ptr, ptr %11, align 8
  %43 = getelementptr inbounds %struct.Kit_Sop_t_, ptr %42, i32 0, i32 2
  %44 = load ptr, ptr %43, align 8
  %45 = getelementptr inbounds i32, ptr %44, i64 0
  %46 = load i32, ptr %45, align 4
  %47 = icmp eq i32 %46, 0
  br i1 %47, label %48, label %57

48:                                               ; preds = %41, %31
  %49 = load ptr, ptr %8, align 8
  %50 = getelementptr inbounds %struct.Vec_Int_t_, ptr %49, i32 0, i32 2
  %51 = load ptr, ptr %50, align 8
  %52 = getelementptr inbounds i32, ptr %51, i64 0
  store i32 0, ptr %52, align 4
  %53 = load ptr, ptr %8, align 8
  %54 = load ptr, ptr %11, align 8
  %55 = getelementptr inbounds %struct.Kit_Sop_t_, ptr %54, i32 0, i32 1
  %56 = load i32, ptr %55, align 4
  call void @Vec_IntShrink(ptr noundef %53, i32 noundef %56)
  store i32 0, ptr %5, align 4
  br label %122

57:                                               ; preds = %41, %36
  %58 = load i32, ptr %9, align 4
  %59 = icmp ne i32 %58, 0
  br i1 %59, label %60, label %105

60:                                               ; preds = %57
  %61 = load ptr, ptr %6, align 8
  %62 = load ptr, ptr %6, align 8
  %63 = load i32, ptr %7, align 4
  call void @Kit_TruthNot(ptr noundef %61, ptr noundef %62, i32 noundef %63)
  %64 = load ptr, ptr %6, align 8
  %65 = load ptr, ptr %6, align 8
  %66 = load i32, ptr %7, align 4
  %67 = load ptr, ptr %13, align 8
  %68 = load ptr, ptr %8, align 8
  %69 = call ptr @Kit_TruthIsop_rec(ptr noundef %64, ptr noundef %65, i32 noundef %66, ptr noundef %67, ptr noundef %68)
  store ptr %69, ptr %14, align 8
  %70 = load ptr, ptr %13, align 8
  %71 = getelementptr inbounds %struct.Kit_Sop_t_, ptr %70, i32 0, i32 1
  %72 = load i32, ptr %71, align 4
  %73 = icmp sge i32 %72, 0
  br i1 %73, label %74, label %101

74:                                               ; preds = %60
  %75 = load ptr, ptr %11, align 8
  %76 = getelementptr inbounds %struct.Kit_Sop_t_, ptr %75, i32 0, i32 1
  %77 = load i32, ptr %76, align 4
  %78 = load ptr, ptr %13, align 8
  %79 = getelementptr inbounds %struct.Kit_Sop_t_, ptr %78, i32 0, i32 1
  %80 = load i32, ptr %79, align 4
  %81 = icmp sgt i32 %77, %80
  br i1 %81, label %98, label %82

82:                                               ; preds = %74
  %83 = load ptr, ptr %11, align 8
  %84 = getelementptr inbounds %struct.Kit_Sop_t_, ptr %83, i32 0, i32 1
  %85 = load i32, ptr %84, align 4
  %86 = load ptr, ptr %13, align 8
  %87 = getelementptr inbounds %struct.Kit_Sop_t_, ptr %86, i32 0, i32 1
  %88 = load i32, ptr %87, align 4
  %89 = icmp eq i32 %85, %88
  br i1 %89, label %90, label %100

90:                                               ; preds = %82
  %91 = load ptr, ptr %11, align 8
  %92 = getelementptr inbounds %struct.Kit_Sop_t_, ptr %91, i32 0, i32 0
  %93 = load i32, ptr %92, align 8
  %94 = load ptr, ptr %13, align 8
  %95 = getelementptr inbounds %struct.Kit_Sop_t_, ptr %94, i32 0, i32 0
  %96 = load i32, ptr %95, align 8
  %97 = icmp sgt i32 %93, %96
  br i1 %97, label %98, label %100

98:                                               ; preds = %90, %74
  store i32 1, ptr %15, align 4
  %99 = load ptr, ptr %13, align 8
  store ptr %99, ptr %11, align 8
  br label %100

100:                                              ; preds = %98, %90, %82
  br label %101

101:                                              ; preds = %100, %60
  %102 = load ptr, ptr %6, align 8
  %103 = load ptr, ptr %6, align 8
  %104 = load i32, ptr %7, align 4
  call void @Kit_TruthNot(ptr noundef %102, ptr noundef %103, i32 noundef %104)
  br label %105

105:                                              ; preds = %101, %57
  %106 = load ptr, ptr %8, align 8
  %107 = getelementptr inbounds %struct.Vec_Int_t_, ptr %106, i32 0, i32 2
  %108 = load ptr, ptr %107, align 8
  %109 = load ptr, ptr %11, align 8
  %110 = getelementptr inbounds %struct.Kit_Sop_t_, ptr %109, i32 0, i32 2
  %111 = load ptr, ptr %110, align 8
  %112 = load ptr, ptr %11, align 8
  %113 = getelementptr inbounds %struct.Kit_Sop_t_, ptr %112, i32 0, i32 1
  %114 = load i32, ptr %113, align 4
  %115 = sext i32 %114 to i64
  %116 = mul i64 %115, 4
  call void @llvm.memmove.p0.p0.i64(ptr align 4 %108, ptr align 4 %111, i64 %116, i1 false)
  %117 = load ptr, ptr %8, align 8
  %118 = load ptr, ptr %11, align 8
  %119 = getelementptr inbounds %struct.Kit_Sop_t_, ptr %118, i32 0, i32 1
  %120 = load i32, ptr %119, align 4
  call void @Vec_IntShrink(ptr noundef %117, i32 noundef %120)
  %121 = load i32, ptr %15, align 4
  store i32 %121, ptr %5, align 4
  br label %122

122:                                              ; preds = %105, %48, %28
  %123 = load i32, ptr %5, align 4
  ret i32 %123
}