; Function Attrs: nounwind uwtable
define range(i32 -1, 2) i32 @Kit_TruthIsop(ptr noundef %0, i32 noundef %1, ptr noundef initializes((4, 8)) %2, i32 noundef %3) local_unnamed_addr #0 {
  %5 = alloca %struct.Kit_Sop_t_, align 8
  %6 = alloca %struct.Kit_Sop_t_, align 8
  %7 = getelementptr inbounds nuw i8, ptr %2, i64 4
  store i32 0, ptr %7, align 4
  %8 = load i32, ptr %2, align 8
  %9 = icmp sgt i32 %8, 1048575
  br i1 %9, label %Vec_IntGrow.exit, label %10

10:                                               ; preds = %4
  %11 = getelementptr inbounds nuw i8, ptr %2, i64 8
  %12 = load ptr, ptr %11, align 8
  %.not.i = icmp eq ptr %12, null
  br i1 %.not.i, label %15, label %13

13:                                               ; preds = %10
  %14 = tail call dereferenceable_or_null(4194304) ptr @realloc(ptr noundef nonnull %12, i64 noundef 4194304) #9
  br label %17

15:                                               ; preds = %10
  %16 = tail call noalias dereferenceable_or_null(4194304) ptr @malloc(i64 noundef 4194304) #10
  br label %17

17:                                               ; preds = %15, %13
  %18 = phi ptr [ %14, %13 ], [ %16, %15 ]
  store ptr %18, ptr %11, align 8
  store i32 1048576, ptr %2, align 8
  br label %Vec_IntGrow.exit

Vec_IntGrow.exit:                                 ; preds = %4, %17
  %19 = call fastcc ptr @Kit_TruthIsop_rec(ptr noundef %0, ptr noundef %0, i32 noundef %1, ptr noundef %5, ptr noundef nonnull %2)
  %20 = getelementptr inbounds nuw i8, ptr %5, i64 4
  %21 = load i32, ptr %20, align 4
  switch i32 %21, label %30 [
    i32 -1, label %69
    i32 0, label %27
    i32 1, label %22
  ]

22:                                               ; preds = %Vec_IntGrow.exit
  %23 = getelementptr inbounds nuw i8, ptr %5, i64 8
  %24 = load ptr, ptr %23, align 8
  %25 = load i32, ptr %24, align 4
  %26 = icmp eq i32 %25, 0
  br i1 %26, label %27, label %30

27:                                               ; preds = %Vec_IntGrow.exit, %22
  %28 = getelementptr inbounds nuw i8, ptr %2, i64 8
  %29 = load ptr, ptr %28, align 8
  store i32 0, ptr %29, align 4
  br label %69

30:                                               ; preds = %Vec_IntGrow.exit, %22
  %.not = icmp eq i32 %3, 0
  br i1 %.not, label %Kit_TruthNot.exit52, label %31

31:                                               ; preds = %30
  %32 = icmp slt i32 %1, 6
  %33 = add nsw i32 %1, -5
  %34 = shl nuw i32 1, %33
  %spec.select.i = select i1 %32, i32 1, i32 %34
  %35 = icmp sgt i32 %spec.select.i, 0
  br i1 %35, label %select.unfold.preheader.i, label %Kit_TruthNot.exit

select.unfold.preheader.i:                        ; preds = %31
  %36 = zext nneg i32 %spec.select.i to i64
  br label %select.unfold.i

select.unfold.i:                                  ; preds = %select.unfold.i, %select.unfold.preheader.i
  %indvars.iv.i = phi i64 [ %36, %select.unfold.preheader.i ], [ %indvars.iv.next.i, %select.unfold.i ]
  %indvars.iv.next.i = add nsw i64 %indvars.iv.i, -1
  %37 = getelementptr inbounds nuw i32, ptr %0, i64 %indvars.iv.next.i
  %38 = load i32, ptr %37, align 4
  %39 = xor i32 %38, -1
  store i32 %39, ptr %37, align 4
  %40 = icmp samesign ugt i64 %indvars.iv.i, 1
  br i1 %40, label %select.unfold.i, label %Kit_TruthNot.exit, !llvm.loop !4

Kit_TruthNot.exit:                                ; preds = %select.unfold.i, %31
  %41 = call fastcc ptr @Kit_TruthIsop_rec(ptr noundef %0, ptr noundef %0, i32 noundef %1, ptr noundef %6, ptr noundef nonnull %2)
  %42 = getelementptr inbounds nuw i8, ptr %6, i64 4
  %43 = load i32, ptr %42, align 4
  %44 = icmp sgt i32 %43, -1
  br i1 %44, label %45, label %54

45:                                               ; preds = %Kit_TruthNot.exit
  %46 = icmp sgt i32 %21, %43
  br i1 %46, label %53, label %47

47:                                               ; preds = %45
  %48 = icmp eq i32 %21, %43
  br i1 %48, label %49, label %54

49:                                               ; preds = %47
  %50 = load i32, ptr %5, align 8
  %51 = load i32, ptr %6, align 8
  %52 = icmp sgt i32 %50, %51
  br i1 %52, label %53, label %54

53:                                               ; preds = %49, %45
  br label %54

54:                                               ; preds = %47, %49, %53, %Kit_TruthNot.exit
  %.143 = phi ptr [ %6, %53 ], [ %5, %49 ], [ %5, %47 ], [ %5, %Kit_TruthNot.exit ]
  %.1 = phi i32 [ 1, %53 ], [ 0, %49 ], [ 0, %47 ], [ 0, %Kit_TruthNot.exit ]
  br i1 %35, label %select.unfold.preheader.i48, label %Kit_TruthNot.exit52

select.unfold.preheader.i48:                      ; preds = %54
  %55 = zext nneg i32 %spec.select.i to i64
  br label %select.unfold.i49

select.unfold.i49:                                ; preds = %select.unfold.i49, %select.unfold.preheader.i48
  %indvars.iv.i50 = phi i64 [ %55, %select.unfold.preheader.i48 ], [ %indvars.iv.next.i51, %select.unfold.i49 ]
  %indvars.iv.next.i51 = add nsw i64 %indvars.iv.i50, -1
  %56 = getelementptr inbounds nuw i32, ptr %0, i64 %indvars.iv.next.i51
  %57 = load i32, ptr %56, align 4
  %58 = xor i32 %57, -1
  store i32 %58, ptr %56, align 4
  %59 = icmp samesign ugt i64 %indvars.iv.i50, 1
  br i1 %59, label %select.unfold.i49, label %Kit_TruthNot.exit52, !llvm.loop !4

Kit_TruthNot.exit52:                              ; preds = %select.unfold.i49, %54, %30
  %.042 = phi ptr [ %5, %30 ], [ %.143, %54 ], [ %.143, %select.unfold.i49 ]
  %.0 = phi i32 [ 0, %30 ], [ %.1, %54 ], [ %.1, %select.unfold.i49 ]
  %60 = getelementptr inbounds nuw i8, ptr %2, i64 8
  %61 = load ptr, ptr %60, align 8
  %62 = getelementptr inbounds nuw i8, ptr %.042, i64 8
  %63 = load ptr, ptr %62, align 8
  %64 = getelementptr inbounds nuw i8, ptr %.042, i64 4
  %65 = load i32, ptr %64, align 4
  %66 = sext i32 %65 to i64
  %67 = shl nsw i64 %66, 2
  tail call void @llvm.memmove.p0.p0.i64(ptr align 4 %61, ptr align 4 %63, i64 %67, i1 false)
  %68 = load i32, ptr %64, align 4
  br label %69

69:                                               ; preds = %Vec_IntGrow.exit, %Kit_TruthNot.exit52, %27
  %.sink = phi i32 [ %68, %Kit_TruthNot.exit52 ], [ %21, %27 ], [ %21, %Vec_IntGrow.exit ]
  %.041 = phi i32 [ %.0, %Kit_TruthNot.exit52 ], [ 0, %27 ], [ %21, %Vec_IntGrow.exit ]
  store i32 %.sink, ptr %7, align 4
  ret i32 %.041
}